(dp0
I3000
(lp1
((dp2
I0
I3187
sI1
I2900
sI2
I3207
sI3
I3186
sI4
I2910
sI5
I3041
sI6
I2989
sI7
I2964
sI8
I2205
sI9
I1938
sI10
I2897
sI11
I1450
sI12
I1936
sI13
I2911
sI14
I2965
sI15
I3062
sI16
I3064
sI17
I3064
sI18
I0
sI19
I0
sI20
I0
sI21
I0
sI22
I0
sI23
I0
sI24
I0
sI25
I2984
sI26
I3101
sI27
I3172
sI28
I3225
sI29
I3267
sI30
I3296
sI31
I3325
sI32
I3359
sI33
I1451
sI34
I1952
sI35
I3462
sI36
I3489
sI37
I3528
sI38
I3577
sI39
I3610
sI40
I3651
sI41
I3880
sI42
I3929
sI43
I3991
sI44
I4052
sI45
I4096
sI46
I4179
sI47
I4211
sI48
I1409
sI49
I4274
sI50
I4348
sI51
I4359
sI52
I4387
sI53
I2614
sI54
I4303
sI55
I2529
sI56
I2501
sI57
I4109
sI58
I4045
sI59
I3993
sI60
I3970
sI61
I3936
sI62
I3771
sI63
I3874
sI64
I3987
sI65
I3977
sI66
I3948
sI67
I3911
sI68
I3877
sI69
I1287
sI70
I3460
sI71
I3476
sI72
I2626
sI73
I1673
sI74
I3424
sI75
I3442
sI76
I2568
sI77
I2268
sI78
I3386
sI79
I3370
sI80
I2012
sI81
I2673
sI82
I3326
sI83
I3314
sI84
I3301
sI85
I3290
sI86
I3267
sI87
I3269
sI88
I3258
sI89
I3254
sI90
I3250
sI91
I3245
sI92
I3240
sI93
I3239
sI94
I3240
sI95
I3240
sI96
I3238
sI97
I3238
sI98
I3241
sI99
I3245
sI100
I3247
sI101
I3248
sI102
I3256
sI103
I3265
sI104
I3276
sI105
I3282
sI106
I3281
sI107
I3202
sI108
I3206
sI109
I2847
sI110
I2675
sI111
I2589
sI112
I2470
sI113
I2254
sI114
I2059
sI115
I1962
sI116
I799
sI117
I1356
sI118
I1717
sI119
I1654
sI120
I1201
sI121
I1539
sI122
I1116
sI123
I1447
sI124
I1402
sI125
I1097
sI126
I1329
sI127
I1293
sI128
I1258
sI129
I1228
sI130
I1194
sI131
I1166
sI132
I1139
sI133
I1115
sI134
I1100
sI135
I1084
sI136
I1095
sI137
I1115
sI138
I1137
sI139
I1154
sI140
I1143
sI141
I1123
sI142
I1106
sI143
I1090
sI144
I1086
sI145
I1074
sI146
I1060
sI147
I1046
sI148
I1035
sI149
I1017
sI150
I1002
sI151
I997
sI152
I979
sI153
I971
sI154
I965
sI155
I950
sI156
I941
sI157
I934
sI158
I921
sI159
I909
sI160
I902
sI161
I895
sI162
I887
sI163
I880
sI164
I874
sI165
I868
sI166
I865
sI167
I870
sI168
I867
sI169
I863
sI170
I857
sI171
I854
sI172
I850
sI173
I850
sI174
I850
sI175
I849
sI176
I846
sI177
I843
sI178
I840
sI179
I834
sI180
I831
sI181
I830
sI182
I830
sI183
I829
sI184
I832
sI185
I830
sI186
I831
sI187
I820
sI188
I820
sI189
I822
sI190
I822
sI191
I823
sI192
I820
sI193
I823
sI194
I825
sI195
I826
sI196
I834
sI197
I843
sI198
I850
sI199
I853
sI200
I853
sI201
I856
sI202
I861
sI203
I866
sI204
I870
sI205
I882
sI206
I882
sI207
I888
sI208
I893
sI209
I904
sI210
I912
sI211
I918
sI212
I924
sI213
I932
sI214
I934
sI215
I939
sI216
I948
sI217
I959
sI218
I970
sI219
I983
sI220
I763
sI221
I750
sI222
I741
sI223
I736
sI224
I730
sI225
I721
sI226
I480
sI227
I714
sI228
I708
sI229
I700
sI230
I703
sI231
I0
sI232
I404
sI233
I396
sI234
I391
sI235
I385
sI236
I379
sI237
I308
sI238
I368
sI239
I369
sI240
I370
sI241
I372
sI242
I379
sI243
I382
sI244
I384
sI245
I389
sI246
I395
sI247
I403
sI248
I412
sI249
I423
sI250
I433
sI251
I0
sI252
I473
sI253
I478
sI254
I0
sI255
I410
sI256
I218
sI257
I382
sI258
I531
sI259
I411
sI260
I377
sI261
I527
sI262
I523
sI263
I522
sI264
I0
sI265
I1135
sI266
I1131
sI267
I1126
sI268
I1122
sI269
I746
sI270
I559
sI271
I558
sI272
I892
sI273
I1113
sI274
I1113
sI275
I1113
sI276
I1113
sI277
I1113
sI278
I1113
sI279
I1113
sI280
I1116
sI281
I1119
sI282
I1119
sI283
I1121
sI284
I1124
sI285
I1127
sI286
I1131
sI287
I1133
sI288
I1139
sI289
I1142
sI290
I1147
sI291
I1152
sI292
I1159
sI293
I1166
sI294
I1172
sI295
I1178
sI296
I1185
sI297
I1194
sI298
I1201
sI299
I1210
sI300
I1218
sI301
I1229
sI302
I1239
sI303
I1250
sI304
I1263
sI305
I1279
sI306
I1287
sI307
I1300
sI308
I1314
sI309
I1331
sI310
I1343
sI311
I1357
sI312
I1377
sI313
I1397
sI314
I1417
sI315
I1436
sI316
I1456
sI317
I1480
sI318
I1505
sI319
I1530
sI320
I1545
sI321
I1578
sI322
I1604
sI323
I1726
sI324
I1719
sI325
I1737
sI326
I1778
sI327
I1823
sI328
I1914
sI329
I1957
sI330
I1601
sI331
I2051
sI332
I2098
sI333
I2242
sI334
I2291
sI335
I1876
sI336
I2316
sI337
I2320
sI338
I2388
sI339
I2464
sI340
I2564
sI341
I2670
sI342
I2774
sI343
I2886
sI344
I2997
sI345
I3090
sI346
I3158
sI347
I3141
sI348
I3129
sI349
I2979
sI350
I3154
sI351
I3280
sI352
I3270
sI353
I3260
sI354
I3247
sI355
I3231
sI356
I2584
sI357
I2415
sI358
I3210
sI359
I3196
sF2.7009999752044678
tp3
a(g2
F2.8499999046325684
tp4
a(g2
F2.990000009536743
tp5
a(g2
F3.135999917984009
tp6
a(g2
F3.2689998149871826
tp7
a(g2
F3.4119999408721924
tp8
a(g2
F3.547999858856201
tp9
a(g2
F3.687000036239624
tp10
a(g2
F3.8329999446868896
tp11
a(g2
F3.9739999771118164
tp12
a(g2
F4.11899995803833
tp13
a(g2
F4.250999927520752
tp14
a(g2
F4.3999998569488525
tp15
a(g2
F4.5299999713897705
tp16
a(g2
F4.691999912261963
tp17
a(g2
F4.83899998664856
tp18
a(g2
F4.985999822616577
tp19
a(g2
F5.118000030517578
tp20
a(g2
F5.264999866485596
tp21
a(g2
F5.41100001335144
tp22
a(g2
F5.554999828338623
tp23
a(g2
F5.704999923706055
tp24
a(g2
F5.8420000076293945
tp25
a(g2
F5.983000040054321
tp26
a(g2
F6.128000020980835
tp27
a(g2
F6.276000022888184
tp28
a(g2
F6.422999858856201
tp29
a(g2
F6.569000005722046
tp30
a(g2
F6.710999965667725
tp31
a(g2
F6.847999811172485
tp32
a(g2
F6.988999843597412
tp33
a(g2
F7.135999917984009
tp34
a(g2
F7.2829999923706055
tp35
a(g2
F7.427000045776367
tp36
a(g2
F7.575999975204468
tp37
a(g2
F7.7200000286102295
tp38
a(g2
F7.870999813079834
tp39
a(g2
F8.016999959945679
tp40
a(g2
F8.164000034332275
tp41
a(g2
F8.310999870300293
tp42
a(g2
F8.455999851226807
tp43
a(g2
F8.602999925613403
tp44
a(g2
F8.748999834060669
tp45
a(g2
F8.893999814987183
tp46
a(g2
F9.037999868392944
tp47
a(g2
F9.181999921798706
tp48
a(g2
F9.329999923706055
tp49
a(g2
F9.477999925613403
tp50
a(g2
F9.625999927520752
tp51
a(g2
F9.770999908447266
tp52
a(g2
F9.917999982833862
tp53
a(g2
F10.063999891281128
tp54
a(g2
F10.210999965667725
tp55
a(g2
F10.353999853134155
tp56
a(g2
F10.501999855041504
tp57
a(g2
F10.646999835968018
tp58
a(g2
F10.79699993133545
tp59
a(g2
F10.941999912261963
tp60
a(g2
F11.090999841690063
tp61
a(g2
F11.236999988555908
tp62
a(g2
F11.381999969482422
tp63
a(g2
F11.52999997138977
tp64
a(g2
F11.675999879837036
tp65
a(g2
F11.825000047683716
tp66
a(g2
F11.97000002861023
tp67
a(g2
F12.111999988555908
tp68
a(g2
F12.26199984550476
tp69
a(g2
F12.408999919891357
tp70
a(g2
F12.554999828338623
tp71
a(g2
F12.702999830245972
tp72
a(g2
F12.851999998092651
tp73
a(g2
F12.995999813079834
tp74
a(g2
F13.143999814987183
tp75
a(g2
F13.291999816894531
tp76
a(g2
F13.437000036239624
tp77
a(g2
F13.585000038146973
tp78
a(g2
F13.730999946594238
tp79
a(g2
F13.878000020980835
tp80
a(g2
F14.023000001907349
tp81
a(g2
F14.168999910354614
tp82
a(g2
F14.315999984741211
tp83
a(g2
F14.461999893188477
tp84
a(g2
F14.608999967575073
tp85
a(g2
F14.75600004196167
tp86
a(g2
F14.901000022888184
tp87
a(g2
F15.04699993133545
tp88
a(g2
F15.190999984741211
tp89
a(g2
F15.333999872207642
tp90
a(g2
F15.477999925613403
tp91
a(g2
F15.626999855041504
tp92
a(g2
F15.7739999294281
tp93
a(g2
F15.92199993133545
tp94
a(g2
F16.069999933242798
tp95
a(g2
F16.21499991416931
tp96
a(g2
F16.36299991607666
tp97
a(g2
F16.506999969482422
tp98
a(g2
F16.655999898910522
tp99
a(g2
F16.805999994277954
tp100
a(g2
F16.947999954223633
tp101
a(g2
F17.098999977111816
tp102
a(g2
F17.24399995803833
tp103
a(g2
F17.391000032424927
tp104
a(g2
F17.537999868392944
tp105
a(g2
F17.68499994277954
tp106
a(g2
F17.832000017166138
tp107
a(g2
F17.980000019073486
tp108
a(g2
F18.125
tp109
a(g2
F18.2739999294281
tp110
a(g2
F18.421000003814697
tp111
a(g2
F18.566999912261963
tp112
a(g2
F18.71499991416931
tp113
a(g2
F18.860999822616577
tp114
a(g2
F19.007999897003174
tp115
a(g2
F19.155999898910522
tp116
a(g2
F19.302000045776367
tp117
a(g2
F19.448999881744385
tp118
a(g2
F19.59500002861023
tp119
a(g2
F19.740999937057495
tp120
a(g2
F19.888000011444092
tp121
a(g2
F20.03499984741211
tp122
a(g2
F20.181999921798706
tp123
a(g2
F20.328999996185303
tp124
a(g2
F20.47499990463257
tp125
a(g2
F20.620999813079834
tp126
a(g2
F20.76799988746643
tp127
a(g2
F20.914999961853027
tp128
a(g2
F21.063999891281128
tp129
a(g2
F21.210999965667725
tp130
a(g2
F21.35699987411499
tp131
a(g2
F21.50499987602234
tp132
a(g2
F21.651999950408936
tp133
a(g2
F21.7979998588562
tp134
a(g2
F21.944999933242798
tp135
a(g2
F22.090999841690063
tp136
a(g2
F22.235999822616577
tp137
a(g2
F22.384999990463257
tp138
a(g2
F22.532999992370605
tp139
a(g2
F22.67799997329712
tp140
a(g2
F22.825999975204468
tp141
a(g2
F22.972999811172485
tp142
a(g2
F23.119999885559082
tp143
a(g2
F23.264999866485596
tp144
a(g2
F23.41100001335144
tp145
a(g2
F23.55900001525879
tp146
a(g2
F23.705999851226807
tp147
a(g2
F23.852999925613403
tp148
a(g2
F24.0
tp149
a(g2
F24.14800000190735
tp150
a(g2
F24.294999837875366
tp151
a(g2
F24.441999912261963
tp152
a(g2
F24.58899998664856
tp153
a(g2
F24.735999822616577
tp154
a(g2
F24.882999897003174
tp155
a(g2
F25.02900004386902
tp156
a(g2
F25.175999879837036
tp157
a(g2
F25.32200002670288
tp158
a(g2
F25.4689998626709
tp159
a(g2
F25.616999864578247
tp160
a(g2
F25.764999866485596
tp161
a(g2
F25.90999984741211
tp162
a(g2
F26.057999849319458
tp163
a(g2
F26.203999996185303
tp164
a(g2
F26.34999990463257
tp165
a(g2
F26.497999906539917
tp166
a(g2
F26.645999908447266
tp167
a(g2
F26.792999982833862
tp168
a(g2
F26.938999891281128
tp169
a(g2
F27.085999965667725
tp170
a(g2
F27.228999853134155
tp171
a(g2
F27.376999855041504
tp172
a(g2
F27.526000022888184
tp173
a(g2
F27.67199993133545
tp174
a(g2
F27.819999933242798
tp175
a(g2
F27.96399998664856
tp176
a(g2
F28.110999822616577
tp177
a(g2
F28.256999969482422
tp178
a(g2
F28.402999877929688
tp179
a(g2
F28.552000045776367
tp180
a(g2
F28.698999881744385
tp181
a(g2
F28.842999935150146
tp182
a(g2
F28.991999864578247
tp183
a(g2
F29.138999938964844
tp184
a(g2
F29.282999992370605
tp185
a(g2
F29.431999921798706
tp186
a(g2
F29.578999996185303
tp187
a(g2
F29.72699999809265
tp188
a(g2
F29.872999906539917
tp189
a(g2
F30.018999814987183
tp190
asI4000
(lp191
((dp192
I0
I2658
sI1
I3080
sI2
I2271
sI3
I1207
sI4
I3212
sI5
I3216
sI6
I2151
sI7
I3221
sI8
I3227
sI9
I1608
sI10
I3181
sI11
I2144
sI12
I3214
sI13
I3214
sI14
I2733
sI15
I3125
sI16
I3010
sI17
I3290
sI18
I0
sI19
I0
sI20
I0
sI21
I0
sI22
I0
sI23
I0
sI24
I0
sI25
I3018
sI26
I3129
sI27
I3209
sI28
I3272
sI29
I3314
sI30
I3338
sI31
I3366
sI32
I3393
sI33
I1521
sI34
I1152
sI35
I3469
sI36
I0
sI37
I0
sI38
I0
sI39
I0
sI40
I0
sI41
I0
sI42
I0
sI43
I0
sI44
I0
sI45
I0
sI46
I0
sI47
I2467
sI48
I3826
sI49
I4109
sI50
I4194
sI51
I4404
sI52
I4448
sI53
I4394
sI54
I4325
sI55
I2476
sI56
I1337
sI57
I1200
sI58
I1474
sI59
I2811
sI60
I3975
sI61
I3855
sI62
I3838
sI63
I3931
sI64
I4015
sI65
I4002
sI66
I3958
sI67
I3917
sI68
I3402
sI69
I3083
sI70
I3811
sI71
I3786
sI72
I3761
sI73
I3400
sI74
I3477
sI75
I3458
sI76
I3434
sI77
I3410
sI78
I3396
sI79
I3377
sI80
I2240
sI81
I3421
sI82
I3388
sI83
I3340
sI84
I3311
sI85
I3296
sI86
I3286
sI87
I3276
sI88
I2860
sI89
I3260
sI90
I3253
sI91
I3249
sI92
I3247
sI93
I3245
sI94
I3244
sI95
I3242
sI96
I3243
sI97
I3241
sI98
I3245
sI99
I2525
sI100
I3250
sI101
I3254
sI102
I3260
sI103
I3270
sI104
I3276
sI105
I3290
sI106
I3307
sI107
I3203
sI108
I3125
sI109
I2901
sI110
I2669
sI111
I2537
sI112
I2422
sI113
I2100
sI114
I1351
sI115
I1279
sI116
I1427
sI117
I881
sI118
I1698
sI119
I1650
sI120
I1117
sI121
I1153
sI122
I1082
sI123
I1257
sI124
I1084
sI125
I1351
sI126
I1313
sI127
I1136
sI128
I1243
sI129
I1215
sI130
I1195
sI131
I1166
sI132
I1139
sI133
I1115
sI134
I1093
sI135
I1083
sI136
I1101
sI137
I1120
sI138
I1138
sI139
I1155
sI140
I1136
sI141
I1121
sI142
I1107
sI143
I1088
sI144
I1087
sI145
I1071
sI146
I1056
sI147
I1044
sI148
I1029
sI149
I1012
sI150
I1004
sI151
I992
sI152
I984
sI153
I974
sI154
I960
sI155
I951
sI156
I942
sI157
I936
sI158
I913
sI159
I907
sI160
I900
sI161
I893
sI162
I885
sI163
I876
sI164
I874
sI165
I869
sI166
I865
sI167
I871
sI168
I866
sI169
I866
sI170
I858
sI171
I852
sI172
I849
sI173
I846
sI174
I843
sI175
I841
sI176
I844
sI177
I838
sI178
I835
sI179
I834
sI180
I832
sI181
I832
sI182
I834
sI183
I830
sI184
I830
sI185
I830
sI186
I830
sI187
I822
sI188
I821
sI189
I822
sI190
I823
sI191
I823
sI192
I822
sI193
I824
sI194
I826
sI195
I829
sI196
I836
sI197
I843
sI198
I846
sI199
I851
sI200
I854
sI201
I858
sI202
I863
sI203
I868
sI204
I872
sI205
I883
sI206
I885
sI207
I891
sI208
I897
sI209
I903
sI210
I911
sI211
I918
sI212
I927
sI213
I937
sI214
I937
sI215
I944
sI216
I951
sI217
I963
sI218
I974
sI219
I986
sI220
I756
sI221
I749
sI222
I751
sI223
I760
sI224
I0
sI225
I707
sI226
I506
sI227
I662
sI228
I0
sI229
I396
sI230
I165
sI231
I284
sI232
I373
sI233
I185
sI234
I0
sI235
I369
sI236
I368
sI237
I364
sI238
I365
sI239
I367
sI240
I370
sI241
I371
sI242
I374
sI243
I379
sI244
I383
sI245
I387
sI246
I393
sI247
I403
sI248
I420
sI249
I444
sI250
I476
sI251
I509
sI252
I540
sI253
I537
sI254
I303
sI255
I529
sI256
I530
sI257
I523
sI258
I520
sI259
I518
sI260
I517
sI261
I515
sI262
I514
sI263
I516
sI264
I0
sI265
I0
sI266
I0
sI267
I0
sI268
I0
sI269
I0
sI270
I0
sI271
I848
sI272
I1122
sI273
I1116
sI274
I1112
sI275
I1112
sI276
I1111
sI277
I889
sI278
I1112
sI279
I1112
sI280
I1116
sI281
I1115
sI282
I1118
sI283
I1120
sI284
I1122
sI285
I1125
sI286
I1129
sI287
I1132
sI288
I1136
sI289
I1142
sI290
I1146
sI291
I1151
sI292
I1157
sI293
I1164
sI294
I1169
sI295
I1176
sI296
I1184
sI297
I1191
sI298
I1198
sI299
I1206
sI300
I1216
sI301
I1227
sI302
I1237
sI303
I1248
sI304
I1260
sI305
I1274
sI306
I1286
sI307
I1298
sI308
I1311
sI309
I1325
sI310
I1342
sI311
I1358
sI312
I1375
sI313
I1394
sI314
I1416
sI315
I1434
sI316
I1454
sI317
I1478
sI318
I1501
sI319
I1523
sI320
I1535
sI321
I1571
sI322
I1602
sI323
I1692
sI324
I1755
sI325
I1789
sI326
I1871
sI327
I1933
sI328
I1980
sI329
I2022
sI330
I1654
sI331
I2120
sI332
I2170
sI333
I1481
sI334
I2267
sI335
I2309
sI336
I2334
sI337
I2318
sI338
I2372
sI339
I2457
sI340
I2557
sI341
I2649
sI342
I2752
sI343
I2304
sI344
I2983
sI345
I3047
sI346
I3089
sI347
I3139
sI348
I3183
sI349
I3168
sI350
I3164
sI351
I3150
sI352
I3139
sI353
I2985
sI354
I3011
sI355
I3067
sI356
I3085
sI357
I3068
sI358
I3069
sI359
I3125
sF2.7289998531341553
tp193
a(g192
F2.94599986076355
tp194
a(g192
F3.1439998149871826
tp195
a(g192
F3.3299999237060547
tp196
a(g192
F3.506999969482422
tp197
a(g192
F3.688999891281128
tp198
a(g192
F3.879999876022339
tp199
a(g192
F4.06499981880188
tp200
a(g192
F4.25
tp201
a(g192
F4.458999872207642
tp202
a(g192
F4.6549999713897705
tp203
a(g192
F4.8399999141693115
tp204
a(g192
F5.039000034332275
tp205
a(g192
F5.227999925613403
tp206
a(g192
F5.430999994277954
tp207
a(g192
F5.620999813079834
tp208
a(g192
F5.822000026702881
tp209
a(g192
F6.010999917984009
tp210
a(g192
F6.202999830245972
tp211
a(g192
F6.391999959945679
tp212
a(g192
F6.579999923706055
tp213
a(g192
F6.773999929428101
tp214
a(g192
F6.9629998207092285
tp215
a(g192
F7.151000022888184
tp216
a(g192
F7.353999853134155
tp217
a(g192
F7.539999961853027
tp218
a(g192
F7.744999885559082
tp219
a(g192
F7.942999839782715
tp220
a(g192
F8.135999917984009
tp221
a(g192
F8.33299994468689
tp222
a(g192
F8.521999835968018
tp223
a(g192
F8.720999956130981
tp224
a(g192
F8.916999816894531
tp225
a(g192
F9.11299991607666
tp226
a(g192
F9.306999921798706
tp227
a(g192
F9.500999927520752
tp228
a(g192
F9.687999963760376
tp229
a(g192
F9.896999835968018
tp230
a(g192
F10.086999893188477
tp231
a(g192
F10.276999950408936
tp232
a(g192
F10.477999925613403
tp233
a(g192
F10.67799997329712
tp234
a(g192
F10.84500002861023
tp235
a(g192
F11.043999910354614
tp236
a(g192
F11.23199987411499
tp237
a(g192
F11.434999942779541
tp238
a(g192
F11.631999969482422
tp239
a(g192
F11.82699990272522
tp240
a(g192
F12.016999959945679
tp241
a(g192
F12.217999935150146
tp242
a(g192
F12.40499997138977
tp243
a(g192
F12.608000040054321
tp244
a(g192
F12.801999807357788
tp245
a(g192
F12.997999906539917
tp246
a(g192
F13.198999881744385
tp247
a(g192
F13.388999938964844
tp248
a(g192
F13.589999914169312
tp249
a(g192
F13.77999997138977
tp250
a(g192
F13.968999862670898
tp251
a(g192
F14.171000003814697
tp252
a(g192
F14.375999927520752
tp253
a(g192
F14.556999921798706
tp254
a(g192
F14.764999866485596
tp255
a(g192
F14.96399998664856
tp256
a(g192
F15.1489999294281
tp257
a(g192
F15.353999853134155
tp258
a(g192
F15.54699993133545
tp259
a(g192
F15.730999946594238
tp260
a(g192
F15.937999963760376
tp261
a(g192
F16.138000011444092
tp262
a(g192
F16.329999923706055
tp263
a(g192
F16.52899980545044
tp264
a(g192
F16.72000002861023
tp265
a(g192
F16.92199993133545
tp266
a(g192
F17.10599994659424
tp267
a(g192
F17.30999994277954
tp268
a(g192
F17.495999813079834
tp269
a(g192
F17.70299983024597
tp270
a(g192
F17.89299988746643
tp271
a(g192
F18.09599995613098
tp272
a(g192
F18.292999982833862
tp273
a(g192
F18.485999822616577
tp274
a(g192
F18.68499994277954
tp275
a(g192
F18.876999855041504
tp276
a(g192
F19.075999975204468
tp277
a(g192
F19.268999814987183
tp278
a(g192
F19.467999935150146
tp279
a(g192
F19.658999919891357
tp280
a(g192
F19.852999925613403
tp281
a(g192
F20.049000024795532
tp282
a(g192
F20.256999969482422
tp283
a(g192
F20.429999828338623
tp284
a(g192
F20.62999987602234
tp285
a(g192
F20.817999839782715
tp286
a(g192
F21.021999835968018
tp287
a(g192
F21.211999893188477
tp288
a(g192
F21.414000034332275
tp289
a(g192
F21.602999925613403
tp290
a(g192
F21.799999952316284
tp291
a(g192
F22.001999855041504
tp292
a(g192
F22.19099998474121
tp293
a(g192
F22.388999938964844
tp294
a(g192
F22.585999965667725
tp295
a(g192
F22.782999992370605
tp296
a(g192
F22.97499990463257
tp297
a(g192
F23.17199993133545
tp298
a(g192
F23.36299991607666
tp299
a(g192
F23.563999891281128
tp300
a(g192
F23.763999938964844
tp301
a(g192
F23.955999851226807
tp302
a(g192
F24.157999992370605
tp303
a(g192
F24.342999935150146
tp304
a(g192
F24.537999868392944
tp305
a(g192
F24.75
tp306
a(g192
F24.93499994277954
tp307
a(g192
F25.131999969482422
tp308
a(g192
F25.323999881744385
tp309
a(g192
F25.518999814987183
tp310
a(g192
F25.72000002861023
tp311
a(g192
F25.914999961853027
tp312
a(g192
F26.111999988555908
tp313
a(g192
F26.30900001525879
tp314
a(g192
F26.503999948501587
tp315
a(g192
F26.699999809265137
tp316
a(g192
F26.888999938964844
tp317
a(g192
F27.08999991416931
tp318
a(g192
F27.280999898910522
tp319
a(g192
F27.478999853134155
tp320
a(g192
F27.675999879837036
tp321
a(g192
F27.871999979019165
tp322
a(g192
F28.069000005722046
tp323
a(g192
F28.26199984550476
tp324
a(g192
F28.460000038146973
tp325
a(g192
F28.65499997138977
tp326
a(g192
F28.85099983215332
tp327
a(g192
F29.04699993133545
tp328
a(g192
F29.240000009536743
tp329
a(g192
F29.437999963760376
tp330
a(g192
F29.638000011444092
tp331
a(g192
F29.83999991416931
tp332
a(g192
F30.026000022888184
tp333
asI6000
(lp334
((dp335
I0
I1558
sI1
I3242
sI2
I1944
sI3
I3087
sI4
I2931
sI5
I3007
sI6
I2916
sI7
I3242
sI8
I2886
sI9
I3030
sI10
I1318
sI11
I1861
sI12
I1956
sI13
I2621
sI14
I2019
sI15
I2821
sI16
I2642
sI17
I2481
sI18
I1399
sI19
I1074
sI20
I3038
sI21
I3150
sI22
I3112
sI23
I3176
sI24
I3187
sI25
I3216
sI26
I2661
sI27
I2432
sI28
I2863
sI29
I2965
sI30
I2770
sI31
I3327
sI32
I3359
sI33
I3008
sI34
I2644
sI35
I3367
sI36
I3467
sI37
I0
sI38
I0
sI39
I0
sI40
I0
sI41
I0
sI42
I0
sI43
I0
sI44
I0
sI45
I0
sI46
I529
sI47
I1872
sI48
I1855
sI49
I0
sI50
I1472
sI51
I2532
sI52
I2666
sI53
I3412
sI54
I4365
sI55
I1834
sI56
I2109
sI57
I1659
sI58
I2138
sI59
I2101
sI60
I2416
sI61
I1546
sI62
I0
sI63
I0
sI64
I891
sI65
I1611
sI66
I3986
sI67
I3946
sI68
I3905
sI69
I3839
sI70
I3944
sI71
I3890
sI72
I3803
sI73
I3639
sI74
I3456
sI75
I3473
sI76
I3450
sI77
I2999
sI78
I3408
sI79
I3390
sI80
I2999
sI81
I2238
sI82
I3341
sI83
I3324
sI84
I3319
sI85
I3305
sI86
I3294
sI87
I3285
sI88
I3274
sI89
I2541
sI90
I3259
sI91
I3256
sI92
I3250
sI93
I2841
sI94
I3246
sI95
I3244
sI96
I3244
sI97
I3243
sI98
I3244
sI99
I3246
sI100
I3250
sI101
I3253
sI102
I3258
sI103
I3264
sI104
I3272
sI105
I3284
sI106
I3294
sI107
I3236
sI108
I3208
sI109
I2961
sI110
I2822
sI111
I2614
sI112
I2523
sI113
I2258
sI114
I1555
sI115
I1468
sI116
I1660
sI117
I2291
sI118
I1811
sI119
I1765
sI120
I1309
sI121
I1396
sI122
I1300
sI123
I1467
sI124
I947
sI125
I1003
sI126
I780
sI127
I1301
sI128
I1266
sI129
I1235
sI130
I1209
sI131
I1182
sI132
I1154
sI133
I1130
sI134
I1106
sI135
I1085
sI136
I1090
sI137
I1108
sI138
I1126
sI139
I1144
sI140
I1153
sI141
I1131
sI142
I1116
sI143
I1101
sI144
I1295
sI145
I1088
sI146
I1069
sI147
I1051
sI148
I1042
sI149
I1024
sI150
I1010
sI151
I1002
sI152
I990
sI153
I977
sI154
I968
sI155
I959
sI156
I948
sI157
I944
sI158
I931
sI159
I912
sI160
I906
sI161
I899
sI162
I893
sI163
I881
sI164
I870
sI165
I870
sI166
I869
sI167
I865
sI168
I872
sI169
I866
sI170
I862
sI171
I863
sI172
I854
sI173
I851
sI174
I847
sI175
I844
sI176
I841
sI177
I845
sI178
I837
sI179
I836
sI180
I839
sI181
I837
sI182
I833
sI183
I831
sI184
I831
sI185
I830
sI186
I831
sI187
I827
sI188
I821
sI189
I823
sI190
I824
sI191
I825
sI192
I824
sI193
I824
sI194
I826
sI195
I828
sI196
I831
sI197
I842
sI198
I847
sI199
I849
sI200
I853
sI201
I857
sI202
I862
sI203
I866
sI204
I871
sI205
I880
sI206
I883
sI207
I888
sI208
I894
sI209
I901
sI210
I907
sI211
I814
sI212
I925
sI213
I931
sI214
I939
sI215
I940
sI216
I949
sI217
I958
sI218
I968
sI219
I979
sI220
I753
sI221
I749
sI222
I752
sI223
I818
sI224
I1057
sI225
I685
sI226
I527
sI227
I646
sI228
I649
sI229
I261
sI230
I224
sI231
I250
sI232
I370
sI233
I365
sI234
I228
sI235
I364
sI236
I364
sI237
I364
sI238
I363
sI239
I363
sI240
I365
sI241
I368
sI242
I369
sI243
I373
sI244
I378
sI245
I382
sI246
I387
sI247
I394
sI248
I405
sI249
I420
sI250
I465
sI251
I479
sI252
I521
sI253
I537
sI254
I531
sI255
I284
sI256
I528
sI257
I526
sI258
I521
sI259
I517
sI260
I515
sI261
I514
sI262
I841
sI263
I512
sI264
I514
sI265
I1131
sI266
I1130
sI267
I1124
sI268
I1121
sI269
I1119
sI270
I613
sI271
I872
sI272
I930
sI273
I1112
sI274
I1111
sI275
I1110
sI276
I832
sI277
I634
sI278
I1110
sI279
I1110
sI280
I1111
sI281
I1112
sI282
I1114
sI283
I1117
sI284
I1119
sI285
I1121
sI286
I1123
sI287
I1128
sI288
I1131
sI289
I1136
sI290
I1143
sI291
I1145
sI292
I1151
sI293
I1156
sI294
I1163
sI295
I1170
sI296
I1176
sI297
I1184
sI298
I1191
sI299
I1198
sI300
I1207
sI301
I1216
sI302
I1227
sI303
I1238
sI304
I1251
sI305
I1262
sI306
I1274
sI307
I1287
sI308
I1305
sI309
I1316
sI310
I1328
sI311
I1344
sI312
I1361
sI313
I1381
sI314
I1397
sI315
I1417
sI316
I1438
sI317
I1459
sI318
I1482
sI319
I1506
sI320
I1528
sI321
I1724
sI322
I1581
sI323
I1607
sI324
I1721
sI325
I1815
sI326
I1857
sI327
I1897
sI328
I1937
sI329
I1978
sI330
I2025
sI331
I1508
sI332
I2124
sI333
I2184
sI334
I2249
sI335
I2318
sI336
I2353
sI337
I2337
sI338
I2333
sI339
I2399
sI340
I2492
sI341
I2580
sI342
I2676
sI343
I1863
sI344
I2912
sI345
I3021
sI346
I3122
sI347
I3183
sI348
I3178
sI349
I3158
sI350
I3035
sI351
I3158
sI352
I3077
sI353
I3308
sI354
I2827
sI355
I3070
sI356
I3087
sI357
I1878
sI358
I2071
sI359
I1875
sF2.8540000915527344
tp336
a(g335
F3.1550002098083496
tp337
a(g335
F3.4260001182556152
tp338
a(g335
F3.7139999866485596
tp339
a(g335
F3.994000196456909
tp340
a(g335
F4.267000198364258
tp341
a(g335
F4.564000129699707
tp342
a(g335
F4.858000040054321
tp343
a(g335
F5.136000156402588
tp344
a(g335
F5.434000015258789
tp345
a(g335
F5.707000017166138
tp346
a(g335
F6.001000165939331
tp347
a(g335
F6.278000116348267
tp348
a(g335
F6.561000108718872
tp349
a(g335
F6.861000061035156
tp350
a(g335
F7.134999990463257
tp351
a(g335
F7.426000118255615
tp352
a(g335
F7.718000173568726
tp353
a(g335
F8.013000011444092
tp354
a(g335
F8.305999994277954
tp355
a(g335
F8.598000049591064
tp356
a(g335
F8.892000198364258
tp357
a(g335
F9.18500018119812
tp358
a(g335
F9.478000164031982
tp359
a(g335
F9.769999980926514
tp360
a(g335
F10.062000036239624
tp361
a(g335
F10.335000038146973
tp362
a(g335
F10.628000020980835
tp363
a(g335
F10.919000148773193
tp364
a(g335
F11.21500015258789
tp365
a(g335
F11.509999990463257
tp366
a(g335
F11.802000045776367
tp367
a(g335
F12.098000049591064
tp368
a(g335
F12.390000104904175
tp369
a(g335
F12.683000087738037
tp370
a(g335
F12.976999998092651
tp371
a(g335
F13.264000177383423
tp372
a(g335
F13.567000150680542
tp373
a(g335
F13.861000061035156
tp374
a(g335
F14.154000043869019
tp375
a(g335
F14.449000120162964
tp376
a(g335
F14.740000009536743
tp377
a(g335
F15.03600001335144
tp378
a(g335
F15.328999996185303
tp379
a(g335
F15.624000072479248
tp380
a(g335
F15.917999982833862
tp381
a(g335
F16.212000131607056
tp382
a(g335
F16.507000207901
tp383
a(g335
F16.79800009727478
tp384
a(g335
F17.093000173568726
tp385
a(g335
F17.384999990463257
tp386
a(g335
F17.67900013923645
tp387
a(g335
F17.973000049591064
tp388
a(g335
F18.26800012588501
tp389
a(g335
F18.563000202178955
tp390
a(g335
F18.85700011253357
tp391
a(g335
F19.15000009536743
tp392
a(g335
F19.43500018119812
tp393
a(g335
F19.73800015449524
tp394
a(g335
F20.0310001373291
tp395
a(g335
F20.325999975204468
tp396
a(g335
F20.617000102996826
tp397
a(g335
F20.91100001335144
tp398
a(g335
F21.206000089645386
tp399
a(g335
F21.499000072479248
tp400
a(g335
F21.792999982833862
tp401
a(g335
F22.087000131607056
tp402
a(g335
F22.380000114440918
tp403
a(g335
F22.66700005531311
tp404
a(g335
F22.97100019454956
tp405
a(g335
F23.263000011444092
tp406
a(g335
F23.557000160217285
tp407
a(g335
F23.8510000705719
tp408
a(g335
F24.144999980926514
tp409
a(g335
F24.439000129699707
tp410
a(g335
F24.73300004005432
tp411
a(g335
F25.027000188827515
tp412
a(g335
F25.313000202178955
tp413
a(g335
F25.61300015449524
tp414
a(g335
F25.907999992370605
tp415
a(g335
F26.203999996185303
tp416
a(g335
F26.496000051498413
tp417
a(g335
F26.789000034332275
tp418
a(g335
F27.08400011062622
tp419
a(g335
F27.37600016593933
tp420
a(g335
F27.669000148773193
tp421
a(g335
F27.963000059127808
tp422
a(g335
F28.258000135421753
tp423
a(g335
F28.552000045776367
tp424
a(g335
F28.844000101089478
tp425
a(g335
F29.138000011444092
tp426
a(g335
F29.433000087738037
tp427
a(g335
F29.728000164031982
tp428
a(g335
F30.01900005340576
tp429
as.